; Function Attrs: nounwind uwtable
define internal range(i32 0, 36) i32 @epilogProcessor(ptr noundef initializes((520, 528), (536, 552)) %0, ptr noundef %1, ptr noundef %2, ptr noundef writeonly captures(none) %3) #0 {
  %5 = alloca ptr, align 8
  %6 = alloca ptr, align 8
  %7 = alloca ptr, align 8
  %8 = alloca ptr, align 8
  %9 = alloca ptr, align 8
  %10 = getelementptr inbounds nuw i8, ptr %0, i64 520
  store ptr @epilogProcessor, ptr %10, align 8, !tbaa !61
  %11 = getelementptr inbounds nuw i8, ptr %0, i64 536
  store ptr %1, ptr %11, align 8, !tbaa !188
  %12 = getelementptr inbounds nuw i8, ptr %0, i64 304
  %13 = getelementptr inbounds nuw i8, ptr %0, i64 544
  %14 = getelementptr inbounds nuw i8, ptr %0, i64 176
  %15 = getelementptr inbounds nuw i8, ptr %0, i64 8
  %16 = getelementptr inbounds nuw i8, ptr %0, i64 104
  %17 = getelementptr inbounds nuw i8, ptr %0, i64 112
  %18 = getelementptr inbounds nuw i8, ptr %0, i64 896
  br label %19

19:                                               ; preds = %108, %4
  %.039 = phi ptr [ %1, %4 ], [ %105, %108 ]
  call void @llvm.lifetime.start.p0(i64 8, ptr nonnull %9) #23
  store ptr null, ptr %9, align 8, !tbaa !185
  %20 = load ptr, ptr %12, align 8, !tbaa !186
  %21 = load ptr, ptr %20, align 8, !tbaa !103
  %22 = call i32 %21(ptr noundef nonnull %20, ptr noundef %.039, ptr noundef %2, ptr noundef nonnull %9) #23
  %23 = load ptr, ptr %9, align 8, !tbaa !185
  store ptr %23, ptr %13, align 8, !tbaa !205
  switch i32 %22, label %.loopexit [
    i32 -15, label %24
    i32 -4, label %58
    i32 15, label %59
    i32 11, label %89
    i32 13, label %92
    i32 0, label %95
    i32 -1, label %96
    i32 -2, label %100
  ]

24:                                               ; preds = %19
  %25 = load ptr, ptr %14, align 8, !tbaa !118
  %.not45 = icmp eq ptr %25, null
  br i1 %.not45, label %56, label %26

26:                                               ; preds = %24
  %27 = load ptr, ptr %12, align 8, !tbaa !186
  call void @llvm.lifetime.start.p0(i64 8, ptr nonnull %7)
  store ptr %.039, ptr %7, align 8, !tbaa !185
  %28 = getelementptr inbounds nuw i8, ptr %27, i64 124
  %29 = load i8, ptr %28, align 4, !tbaa !212
  %.not.i = icmp eq i8 %29, 0
  br i1 %.not.i, label %30, label %48

30:                                               ; preds = %26
  %31 = getelementptr inbounds nuw i8, ptr %27, i64 104
  br label %32

32:                                               ; preds = %32, %30
  call void @llvm.lifetime.start.p0(i64 8, ptr nonnull %8) #23
  %33 = load ptr, ptr %16, align 8, !tbaa !36
  store ptr %33, ptr %8, align 8, !tbaa !185
  %34 = load ptr, ptr %31, align 8, !tbaa !213
  %35 = load ptr, ptr %17, align 8, !tbaa !37
  %36 = call i32 %34(ptr noundef nonnull %27, ptr noundef nonnull %7, ptr noundef %23, ptr noundef nonnull %8, ptr noundef %35) #23
  %37 = load ptr, ptr %7, align 8, !tbaa !185
  store ptr %37, ptr %13, align 8, !tbaa !185
  %38 = load ptr, ptr %14, align 8, !tbaa !118
  %39 = load ptr, ptr %15, align 8, !tbaa !131
  %40 = load ptr, ptr %16, align 8, !tbaa !36
  %41 = load ptr, ptr %8, align 8, !tbaa !185
  %42 = ptrtoint ptr %41 to i64
  %43 = ptrtoint ptr %40 to i64
  %44 = sub i64 %42, %43
  %45 = trunc i64 %44 to i32
  call void %38(ptr noundef %39, ptr noundef %40, i32 noundef %45) #23
  %46 = load ptr, ptr %7, align 8, !tbaa !185
  store ptr %46, ptr %11, align 8, !tbaa !185
  call void @llvm.lifetime.end.p0(i64 8, ptr nonnull %8) #23
  %47 = icmp ugt i32 %36, 1
  br i1 %47, label %32, label %reportDefault.exit, !llvm.loop !214

48:                                               ; preds = %26
  %49 = load ptr, ptr %15, align 8, !tbaa !131
  %50 = ptrtoint ptr %23 to i64
  %51 = ptrtoint ptr %.039 to i64
  %52 = sub i64 %50, %51
  %53 = trunc i64 %52 to i32
  call void %25(ptr noundef %49, ptr noundef %.039, i32 noundef %53) #23
  br label %reportDefault.exit

reportDefault.exit:                               ; preds = %32, %48
  call void @llvm.lifetime.end.p0(i64 8, ptr nonnull %7)
  %54 = load i32, ptr %18, align 8, !tbaa !79
  %55 = icmp eq i32 %54, 2
  br i1 %55, label %.loopexit, label %reportDefault.exit._crit_edge

reportDefault.exit._crit_edge:                    ; preds = %reportDefault.exit
  %.pre = load ptr, ptr %9, align 8, !tbaa !185
  br label %56

56:                                               ; preds = %reportDefault.exit._crit_edge, %24
  %57 = phi ptr [ %.pre, %reportDefault.exit._crit_edge ], [ %23, %24 ]
  store ptr %57, ptr %3, align 8, !tbaa !185
  br label %.loopexit

58:                                               ; preds = %19
  store ptr %.039, ptr %3, align 8, !tbaa !185
  br label %.loopexit

59:                                               ; preds = %19
  %60 = load ptr, ptr %14, align 8, !tbaa !118
  %.not44 = icmp eq ptr %60, null
  br i1 %.not44, label %104, label %61

61:                                               ; preds = %59
  %62 = load ptr, ptr %12, align 8, !tbaa !186
  call void @llvm.lifetime.start.p0(i64 8, ptr nonnull %5)
  store ptr %.039, ptr %5, align 8, !tbaa !185
  %63 = getelementptr inbounds nuw i8, ptr %62, i64 124
  %64 = load i8, ptr %63, align 4, !tbaa !212
  %.not.i46 = icmp eq i8 %64, 0
  br i1 %.not.i46, label %65, label %83

65:                                               ; preds = %61
  %66 = getelementptr inbounds nuw i8, ptr %62, i64 104
  br label %67

67:                                               ; preds = %67, %65
  call void @llvm.lifetime.start.p0(i64 8, ptr nonnull %6) #23
  %68 = load ptr, ptr %16, align 8, !tbaa !36
  store ptr %68, ptr %6, align 8, !tbaa !185
  %69 = load ptr, ptr %66, align 8, !tbaa !213
  %70 = load ptr, ptr %17, align 8, !tbaa !37
  %71 = call i32 %69(ptr noundef nonnull %62, ptr noundef nonnull %5, ptr noundef %23, ptr noundef nonnull %6, ptr noundef %70) #23
  %72 = load ptr, ptr %5, align 8, !tbaa !185
  store ptr %72, ptr %13, align 8, !tbaa !185
  %73 = load ptr, ptr %14, align 8, !tbaa !118
  %74 = load ptr, ptr %15, align 8, !tbaa !131
  %75 = load ptr, ptr %16, align 8, !tbaa !36
  %76 = load ptr, ptr %6, align 8, !tbaa !185
  %77 = ptrtoint ptr %76 to i64
  %78 = ptrtoint ptr %75 to i64
  %79 = sub i64 %77, %78
  %80 = trunc i64 %79 to i32
  call void %73(ptr noundef %74, ptr noundef %75, i32 noundef %80) #23
  %81 = load ptr, ptr %5, align 8, !tbaa !185
  store ptr %81, ptr %11, align 8, !tbaa !185
  call void @llvm.lifetime.end.p0(i64 8, ptr nonnull %6) #23
  %82 = icmp ugt i32 %71, 1
  br i1 %82, label %67, label %reportDefault.exit49, !llvm.loop !214

83:                                               ; preds = %61
  %84 = load ptr, ptr %15, align 8, !tbaa !131
  %85 = ptrtoint ptr %23 to i64
  %86 = ptrtoint ptr %.039 to i64
  %87 = sub i64 %85, %86
  %88 = trunc i64 %87 to i32
  call void %60(ptr noundef %84, ptr noundef %.039, i32 noundef %88) #23
  br label %reportDefault.exit49

reportDefault.exit49:                             ; preds = %67, %83
  call void @llvm.lifetime.end.p0(i64 8, ptr nonnull %5)
  br label %104

89:                                               ; preds = %19
  %90 = load ptr, ptr %12, align 8, !tbaa !186
  %91 = call fastcc i32 @reportProcessingInstruction(ptr noundef nonnull %0, ptr noundef %90, ptr noundef %.039, ptr noundef %23)
  %.not43 = icmp eq i32 %91, 0
  br i1 %.not43, label %.loopexit, label %104

92:                                               ; preds = %19
  %93 = load ptr, ptr %12, align 8, !tbaa !186
  %94 = call fastcc i32 @reportComment(ptr noundef nonnull %0, ptr noundef %93, ptr noundef %.039, ptr noundef %23)
  %.not42 = icmp eq i32 %94, 0
  br i1 %.not42, label %.loopexit, label %104

95:                                               ; preds = %19
  store ptr %23, ptr %11, align 8, !tbaa !188
  br label %.loopexit

96:                                               ; preds = %19
  %97 = getelementptr inbounds nuw i8, ptr %0, i64 900
  %98 = load i8, ptr %97, align 4, !tbaa !187
  %.not41 = icmp eq i8 %98, 0
  br i1 %.not41, label %99, label %.loopexit

99:                                               ; preds = %96
  store ptr %.039, ptr %3, align 8, !tbaa !185
  br label %.loopexit

100:                                              ; preds = %19
  %101 = getelementptr inbounds nuw i8, ptr %0, i64 900
  %102 = load i8, ptr %101, align 4, !tbaa !187
  %.not = icmp eq i8 %102, 0
  br i1 %.not, label %103, label %.loopexit

103:                                              ; preds = %100
  store ptr %.039, ptr %3, align 8, !tbaa !185
  br label %.loopexit

104:                                              ; preds = %92, %89, %59, %reportDefault.exit49
  %105 = load ptr, ptr %9, align 8, !tbaa !185
  store ptr %105, ptr %11, align 8, !tbaa !188
  %106 = load i32, ptr %18, align 8, !tbaa !79
  switch i32 %106, label %108 [
    i32 3, label %107
    i32 2, label %.loopexit
  ]

107:                                              ; preds = %104
  store ptr %105, ptr %3, align 8, !tbaa !185
  br label %.loopexit

108:                                              ; preds = %104
  call void @llvm.lifetime.end.p0(i64 8, ptr nonnull %9) #23
  br label %19

.loopexit:                                        ; preds = %89, %92, %19, %104, %103, %99, %95, %107, %58, %56, %reportDefault.exit, %96, %100
  %.1.ph = phi i32 [ 6, %100 ], [ 5, %96 ], [ 35, %reportDefault.exit ], [ 0, %56 ], [ 0, %58 ], [ 0, %107 ], [ 4, %95 ], [ 0, %99 ], [ 0, %103 ], [ 1, %89 ], [ 1, %92 ], [ 9, %19 ], [ 35, %104 ]
  call void @llvm.lifetime.end.p0(i64 8, ptr nonnull %9) #23
  ret i32 %.1.ph
}